; Function Attrs: mustprogress uwtable
define hidden noundef zeroext i1 @_ZNK4cvc58internal6theory11quantifiers11TermDbSygus17isSymbolicConsAppENS0_12NodeTemplateILb1EEE(ptr nocapture noundef nonnull readnone align 8 dereferenceable(1040) %this, ptr noundef %n) local_unnamed_addr #3 align 2 personality ptr @__gxx_personality_v0 {
entry:
  %tn = alloca %"class.cvc5::internal::TypeNode", align 8
  %agg.tmp = alloca %"class.cvc5::internal::NodeTemplate", align 8
  %0 = load ptr, ptr %n, align 8
  %d_kind.i = getelementptr inbounds i8, ptr %0, i64 8
  %bf.load.i = load i16, ptr %d_kind.i, align 8
  %bf.clear.i = and i16 %bf.load.i, 1023
  %cmp.not = icmp eq i16 %bf.clear.i, 217
  br i1 %cmp.not, label %if.end, label %return

if.end:                                           ; preds = %entry
  call void @_ZNK4cvc58internal12NodeTemplateILb1EE7getTypeEb(ptr nonnull sret(%"class.cvc5::internal::TypeNode") align 8 %tn, ptr noundef nonnull align 8 dereferenceable(8) %n, i1 noundef zeroext false)
  %call2 = invoke noundef nonnull align 8 dereferenceable(448) ptr @_ZNK4cvc58internal8TypeNode8getDTypeEv(ptr noundef nonnull align 8 dereferenceable(8) %tn)
          to label %invoke.cont unwind label %lpad

invoke.cont:                                      ; preds = %if.end
  invoke void @_ZNK4cvc58internal12NodeTemplateILb1EE11getOperatorEv(ptr nonnull sret(%"class.cvc5::internal::NodeTemplate") align 8 %agg.tmp, ptr noundef nonnull align 8 dereferenceable(8) %n)
          to label %invoke.cont3 unwind label %lpad

invoke.cont3:                                     ; preds = %invoke.cont
  %call6 = invoke noundef i64 @_ZN4cvc58internal6theory9datatypes5utils7indexOfENS0_12NodeTemplateILb1EEE(ptr noundef nonnull %agg.tmp)
          to label %invoke.cont5 unwind label %lpad4

invoke.cont5:                                     ; preds = %invoke.cont3
  %1 = load ptr, ptr %agg.tmp, align 8
  %bf.load.i.i = load i64, ptr %1, align 8
  %2 = and i64 %bf.load.i.i, 1152920405095219200
  %cmp.not.i.i = icmp eq i64 %2, 1152920405095219200
  br i1 %cmp.not.i.i, label %_ZN4cvc58internal12NodeTemplateILb1EED2Ev.exit, label %if.then.i.i

if.then.i.i:                                      ; preds = %invoke.cont5
  %bf.value.i.i = add i64 %bf.load.i.i, 1152920405095219200
  %bf.shl.i.i = and i64 %bf.value.i.i, 1152920405095219200
  %bf.clear7.i.i = and i64 %bf.load.i.i, -1152920405095219201
  %bf.set.i.i = or disjoint i64 %bf.shl.i.i, %bf.clear7.i.i
  store i64 %bf.set.i.i, ptr %1, align 8
  %cmp12.i.i = icmp eq i64 %bf.shl.i.i, 0
  br i1 %cmp12.i.i, label %if.then13.i.i, label %_ZN4cvc58internal12NodeTemplateILb1EED2Ev.exit

if.then13.i.i:                                    ; preds = %if.then.i.i
  invoke void @_ZN4cvc58internal4expr9NodeValue15markForDeletionEv(ptr noundef nonnull align 8 dereferenceable(16) %1)
          to label %_ZN4cvc58internal12NodeTemplateILb1EED2Ev.exit unwind label %terminate.lpad.i

terminate.lpad.i:                                 ; preds = %if.then13.i.i
  %3 = landingpad { ptr, i32 }
          catch ptr null
  %4 = extractvalue { ptr, i32 } %3, 0
  call void @__clang_call_terminate(ptr %4) #23
  unreachable

_ZN4cvc58internal12NodeTemplateILb1EED2Ev.exit:   ; preds = %invoke.cont5, %if.then.i.i, %if.then13.i.i
  %conv7 = and i64 %call6, 4294967295
  %call9 = invoke noundef nonnull align 8 dereferenceable(264) ptr @_ZNK4cvc58internal5DTypeixEm(ptr noundef nonnull align 8 dereferenceable(448) %call2, i64 noundef %conv7)
          to label %invoke.cont8 unwind label %lpad

invoke.cont8:                                     ; preds = %_ZN4cvc58internal12NodeTemplateILb1EED2Ev.exit
  %call11 = invoke noundef zeroext i1 @_ZNK4cvc58internal16DTypeConstructor18isSygusAnyConstantEv(ptr noundef nonnull align 8 dereferenceable(264) %call9)
          to label %invoke.cont10 unwind label %lpad

invoke.cont10:                                    ; preds = %invoke.cont8
  %5 = load ptr, ptr %tn, align 8
  %bf.load.i.i2 = load i64, ptr %5, align 8
  %6 = and i64 %bf.load.i.i2, 1152920405095219200
  %cmp.not.i.i3 = icmp eq i64 %6, 1152920405095219200
  br i1 %cmp.not.i.i3, label %return, label %if.then.i.i4

if.then.i.i4:                                     ; preds = %invoke.cont10
  %bf.value.i.i5 = add i64 %bf.load.i.i2, 1152920405095219200
  %bf.shl.i.i6 = and i64 %bf.value.i.i5, 1152920405095219200
  %bf.clear7.i.i7 = and i64 %bf.load.i.i2, -1152920405095219201
  %bf.set.i.i8 = or disjoint i64 %bf.shl.i.i6, %bf.clear7.i.i7
  store i64 %bf.set.i.i8, ptr %5, align 8
  %cmp12.i.i9 = icmp eq i64 %bf.shl.i.i6, 0
  br i1 %cmp12.i.i9, label %if.then13.i.i10, label %return

if.then13.i.i10:                                  ; preds = %if.then.i.i4
  invoke void @_ZN4cvc58internal4expr9NodeValue15markForDeletionEv(ptr noundef nonnull align 8 dereferenceable(16) %5)
          to label %return unwind label %terminate.lpad.i11

terminate.lpad.i11:                               ; preds = %if.then13.i.i10
  %7 = landingpad { ptr, i32 }
          catch ptr null
  %8 = extractvalue { ptr, i32 } %7, 0
  call void @__clang_call_terminate(ptr %8) #23
  unreachable

lpad:                                             ; preds = %invoke.cont8, %_ZN4cvc58internal12NodeTemplateILb1EED2Ev.exit, %invoke.cont, %if.end
  %9 = landingpad { ptr, i32 }
          cleanup
  br label %ehcleanup

lpad4:                                            ; preds = %invoke.cont3
  %10 = landingpad { ptr, i32 }
          cleanup
  call void @_ZN4cvc58internal12NodeTemplateILb1EED2Ev(ptr noundef nonnull align 8 dereferenceable(8) %agg.tmp) #22
  br label %ehcleanup

ehcleanup:                                        ; preds = %lpad4, %lpad
  %.pn = phi { ptr, i32 } [ %9, %lpad ], [ %10, %lpad4 ]
  call void @_ZN4cvc58internal8TypeNodeD2Ev(ptr noundef nonnull align 8 dereferenceable(8) %tn) #22
  resume { ptr, i32 } %.pn

return:                                           ; preds = %if.then13.i.i10, %if.then.i.i4, %invoke.cont10, %entry
  %retval.0 = phi i1 [ false, %entry ], [ %call11, %invoke.cont10 ], [ %call11, %if.then.i.i4 ], [ %call11, %if.then13.i.i10 ]
  ret i1 %retval.0
}